libCommuni.so.2 libcommuni2 #MINVER#
 IsUTF8Text@Base 2.1.1
 _Z17qRegisterMetaTypeI9IrcSenderEiPKcPT_@Base 2.1.1
 _Z21qMetaTypeDeleteHelperI9IrcSenderEvPT_@Base 2.1.1
 _Z24qMetaTypeConstructHelperI9IrcSenderEPvPKT_@Base 2.1.1
 _Z25irc_is_supported_encodingRK10QByteArray@Base 2.1.1
 _ZN10IrcCommand10createAwayERK7QString@Base 2.1.1
 _ZN10IrcCommand10createInfoERK7QString@Base 2.1.1
 _ZN10IrcCommand10createJoinERK11QStringListS2_@Base 2.1.1
 _ZN10IrcCommand10createJoinERK7QStringS2_@Base 2.1.1
 _ZN10IrcCommand10createKickERK7QStringS2_S2_@Base 2.1.1
 _ZN10IrcCommand10createListERK11QStringListRK7QString@Base 2.1.1
 _ZN10IrcCommand10createModeERK7QStringS2_S2_@Base 2.1.1
 _ZN10IrcCommand10createMotdERK7QString@Base 2.1.1
 _ZN10IrcCommand10createNickERK7QString@Base 2.1.1
 _ZN10IrcCommand10createPartERK11QStringListRK7QString@Base 2.1.1
 _ZN10IrcCommand10createPartERK7QStringS2_@Base 2.1.1
 _ZN10IrcCommand10createPingERK7QString@Base 2.1.1
 _ZN10IrcCommand10createPongERK7QString@Base 2.1.1
 _ZN10IrcCommand10createQuitERK7QString@Base 2.1.1
 _ZN10IrcCommand10createTimeERK7QString@Base 2.1.1
 _ZN10IrcCommand11createAdminERK7QString@Base 2.1.1
 _ZN10IrcCommand11createKnockERK7QStringS2_@Base 2.1.1
 _ZN10IrcCommand11createNamesERK11QStringListRK7QString@Base 2.1.1
 _ZN10IrcCommand11createNamesERK7QStringS2_@Base 2.1.1
 _ZN10IrcCommand11createQuoteERK11QStringList@Base 2.1.1
 _ZN10IrcCommand11createQuoteERK7QString@Base 2.1.1
 _ZN10IrcCommand11createStatsERK7QStringS2_@Base 2.1.1
 _ZN10IrcCommand11createTopicERK7QStringS2_@Base 2.1.1
 _ZN10IrcCommand11createTraceERK7QString@Base 2.1.1
 _ZN10IrcCommand11createUsersERK7QString@Base 2.1.1
 _ZN10IrcCommand11createWhoisERK7QString@Base 2.1.1
 _ZN10IrcCommand11qt_metacallEN11QMetaObject4CallEiPPv@Base 2.1.1
 _ZN10IrcCommand11qt_metacastEPKc@Base 2.1.1
 _ZN10IrcCommand11setEncodingERK10QByteArray@Base 2.1.1
 _ZN10IrcCommand12createInviteERK7QStringS2_@Base 2.1.1
 _ZN10IrcCommand12createNoticeERK7QStringS2_@Base 2.1.1
 _ZN10IrcCommand12createWhowasERK7QStringi@Base 2.1.1
 _ZN10IrcCommand13createMessageERK7QStringS2_@Base 2.1.1
 _ZN10IrcCommand13createVersionERK7QString@Base 2.1.1
 _ZN10IrcCommand13setParametersERK11QStringList@Base 2.1.1
 _ZN10IrcCommand15createCtcpReplyERK7QStringS2_@Base 2.1.1
 _ZN10IrcCommand16createCapabilityERK7QStringRK11QStringList@Base 2.1.1
 _ZN10IrcCommand16createCtcpActionERK7QStringS2_@Base 2.1.1
 _ZN10IrcCommand16staticMetaObjectE@Base 2.1.1
 _ZN10IrcCommand17createCtcpRequestERK7QStringS2_@Base 2.1.1
 _ZN10IrcCommand7setTypeENS_4TypeE@Base 2.1.1
 _ZN10IrcCommand9createWhoERK7QStringb@Base 2.1.1
 _ZN10IrcCommandC1EP7QObject@Base 2.1.1
 _ZN10IrcCommandC2EP7QObject@Base 2.1.1
 _ZN10IrcCommandD0Ev@Base 2.1.1
 _ZN10IrcCommandD1Ev@Base 2.1.1
 _ZN10IrcCommandD2Ev@Base 2.1.1
 _ZN10IrcMessage10setCommandERK7QString@Base 2.1.1
 _ZN10IrcMessage11fromCommandERK7QStringP10IrcCommandP10IrcSession@Base 2.1.1
 _ZN10IrcMessage11qt_metacallEN11QMetaObject4CallEiPPv@Base 2.1.1
 _ZN10IrcMessage11qt_metacastEPKc@Base 2.1.1
 _ZN10IrcMessage11setEncodingERK10QByteArray@Base 2.1.1
 _ZN10IrcMessage12setTimeStampERK9QDateTime@Base 2.1.1
 _ZN10IrcMessage13setParametersERK11QStringList@Base 2.1.1
 _ZN10IrcMessage14fromParametersERK7QStringS2_RK11QStringListP10IrcSession@Base 2.1.1
 _ZN10IrcMessage16staticMetaObjectE@Base 2.1.1
 _ZN10IrcMessage8fromDataERK10QByteArrayP10IrcSession@Base 2.1.1
 _ZN10IrcMessage9setSenderERK9IrcSender@Base 2.1.1
 _ZN10IrcMessageC1EP10IrcSession@Base 2.1.1
 _ZN10IrcMessageC2EP10IrcSession@Base 2.1.1
 _ZN10IrcMessageD0Ev@Base 2.1.1
 _ZN10IrcMessageD1Ev@Base 2.1.1
 _ZN10IrcMessageD2Ev@Base 2.1.1
 _ZN10IrcPalette12setColorNameEjRK7QString@Base 2.1.1
 _ZN10IrcPaletteC1ERKS_@Base 2.1.1
 _ZN10IrcPaletteC1Ev@Base 2.1.1
 _ZN10IrcPaletteC2ERKS_@Base 2.1.1
 _ZN10IrcPaletteC2Ev@Base 2.1.1
 _ZN10IrcPaletteD1Ev@Base 2.1.1
 _ZN10IrcPaletteD2Ev@Base 2.1.1
 _ZN10IrcPaletteaSERKS_@Base 2.1.1
 _ZN10IrcSession10connectingEv@Base 2.1.1
 _ZN10IrcSession11hostChangedERK7QString@Base 2.1.1
 _ZN10IrcSession11portChangedEi@Base 2.1.1
 _ZN10IrcSession11qt_metacallEN11QMetaObject4CallEiPPv@Base 2.1.1
 _ZN10IrcSession11qt_metacastEPKc@Base 2.1.1
 _ZN10IrcSession11sendCommandEP10IrcCommand@Base 2.1.1
 _ZN10IrcSession11setEncodingERK10QByteArray@Base 2.1.1
 _ZN10IrcSession11setNickNameERK7QString@Base 2.1.1
 _ZN10IrcSession11setProtocolEP11IrcProtocol@Base 2.1.1
 _ZN10IrcSession11setRealNameERK7QString@Base 2.1.1
 _ZN10IrcSession11setUserNameERK7QString@Base 2.1.1
 _ZN10IrcSession11socketErrorEN15QAbstractSocket11SocketErrorE@Base 2.1.1
 _ZN10IrcSession12capabilitiesERK11QStringListPS0_@Base 2.1.1
 _ZN10IrcSession12disconnectedEv@Base 2.1.1
 _ZN10IrcSession13activeChangedEb@Base 2.1.1
 _ZN10IrcSession15messageReceivedEP10IrcMessage@Base 2.1.1
 _ZN10IrcSession15nickNameChangedERK7QString@Base 2.1.1
 _ZN10IrcSession15realNameChangedERK7QString@Base 2.1.1
 _ZN10IrcSession15userNameChangedERK7QString@Base 2.1.1
 _ZN10IrcSession16connectedChangedEb@Base 2.1.1
 _ZN10IrcSession16staticMetaObjectE@Base 2.1.1
 _ZN10IrcSession18socketStateChangedEN15QAbstractSocket11SocketStateE@Base 2.1.1
 _ZN10IrcSession19removeMessageFilterEP16IrcMessageFilter@Base 2.1.1
 _ZN10IrcSession19sessionInfoReceivedERK14IrcSessionInfo@Base 2.1.1
 _ZN10IrcSession20installMessageFilterEP16IrcMessageFilter@Base 2.1.1
 _ZN10IrcSession4openEv@Base 2.1.1
 _ZN10IrcSession5closeEv@Base 2.1.1
 _ZN10IrcSession7sendRawERK7QString@Base 2.1.1
 _ZN10IrcSession7setHostERK7QString@Base 2.1.1
 _ZN10IrcSession7setPortEi@Base 2.1.1
 _ZN10IrcSession8passwordEP7QString@Base 2.1.1
 _ZN10IrcSession8sendDataERK10QByteArray@Base 2.1.1
 _ZN10IrcSession9connectedEv@Base 2.1.1
 _ZN10IrcSession9setSocketEP15QAbstractSocket@Base 2.1.1
 _ZN10IrcSessionC1EP7QObject@Base 2.1.1
 _ZN10IrcSessionC2EP7QObject@Base 2.1.1
 _ZN10IrcSessionD0Ev@Base 2.1.1
 _ZN10IrcSessionD1Ev@Base 2.1.1
 _ZN10IrcSessionD2Ev@Base 2.1.1
 _ZN10QByteArrayD1Ev@Base 2.1.1
 _ZN10QByteArrayD2Ev@Base 2.1.1
 _ZN11IrcLagTimer10lagChangedEi@Base 2.1.1
 _ZN11IrcLagTimer11qt_metacallEN11QMetaObject4CallEiPPv@Base 2.1.1
 _ZN11IrcLagTimer11qt_metacastEPKc@Base 2.1.1
 _ZN11IrcLagTimer11setIntervalEi@Base 2.1.1
 _ZN11IrcLagTimer16staticMetaObjectE@Base 2.1.1
 _ZN11IrcLagTimerC1EP10IrcSession@Base 2.1.1
 _ZN11IrcLagTimerC2EP10IrcSession@Base 2.1.1
 _ZN11IrcLagTimerD0Ev@Base 2.1.1
 _ZN11IrcLagTimerD1Ev@Base 2.1.1
 _ZN11IrcLagTimerD2Ev@Base 2.1.1
 _ZN11IrcProtocol11qt_metacallEN11QMetaObject4CallEiPPv@Base 2.1.1
 _ZN11IrcProtocol11qt_metacastEPKc@Base 2.1.1
 _ZN11IrcProtocol12setConnectedEb@Base 2.1.1
 _ZN11IrcProtocol14receiveMessageEP10IrcMessage@Base 2.1.1
 _ZN11IrcProtocol16staticMetaObjectE@Base 2.1.1
 _ZN11IrcProtocol4sendERK10QByteArray@Base 2.1.1
 _ZN11IrcProtocol5loginERK7QString@Base 2.1.1
 _ZN11IrcProtocol7receiveEv@Base 2.1.1
 _ZN11IrcProtocol7setNickERK7QString@Base 2.1.1
 _ZN11IrcProtocol9setActiveEb@Base 2.1.1
 _ZN11IrcProtocolC1EP10IrcSession@Base 2.1.1
 _ZN11IrcProtocolC2EP10IrcSession@Base 2.1.1
 _ZN11IrcProtocolD0Ev@Base 2.1.1
 _ZN11IrcProtocolD1Ev@Base 2.1.1
 _ZN11IrcProtocolD2Ev@Base 2.1.1
 _ZN11QStringListD1Ev@Base 2.1.1
 _ZN11QStringListD2Ev@Base 2.1.1
 _ZN13IrcTextFormat10setPaletteERK10IrcPalette@Base 2.1.1
 _ZN13IrcTextFormat13setUrlPatternERK7QString@Base 2.1.1
 _ZN13IrcTextFormatC1ERKS_@Base 2.1.1
 _ZN13IrcTextFormatC1Ev@Base 2.1.1
 _ZN13IrcTextFormatC2ERKS_@Base 2.1.1
 _ZN13IrcTextFormatC2Ev@Base 2.1.1
 _ZN13IrcTextFormatD1Ev@Base 2.1.1
 _ZN13IrcTextFormatD2Ev@Base 2.1.1
 _ZN13IrcTextFormataSERKS_@Base 2.1.1
 _ZN14IrcJoinMessage11qt_metacallEN11QMetaObject4CallEiPPv@Base 2.1.1
 _ZN14IrcJoinMessage11qt_metacastEPKc@Base 2.1.1
 _ZN14IrcJoinMessage16staticMetaObjectE@Base 2.1.1
 _ZN14IrcJoinMessageC1EP10IrcSession@Base 2.1.1
 _ZN14IrcJoinMessageC2EP10IrcSession@Base 2.1.1
 _ZN14IrcJoinMessageD0Ev@Base 2.1.1
 _ZN14IrcJoinMessageD1Ev@Base 2.1.1
 _ZN14IrcJoinMessageD2Ev@Base 2.1.1
 _ZN14IrcKickMessage11qt_metacallEN11QMetaObject4CallEiPPv@Base 2.1.1
 _ZN14IrcKickMessage11qt_metacastEPKc@Base 2.1.1
 _ZN14IrcKickMessage16staticMetaObjectE@Base 2.1.1
 _ZN14IrcKickMessageC1EP10IrcSession@Base 2.1.1
 _ZN14IrcKickMessageC2EP10IrcSession@Base 2.1.1
 _ZN14IrcKickMessageD0Ev@Base 2.1.1
 _ZN14IrcKickMessageD1Ev@Base 2.1.1
 _ZN14IrcKickMessageD2Ev@Base 2.1.1
 _ZN14IrcMessageData8fromDataERK10QByteArray@Base 2.1.1
 _ZN14IrcMessageDataD1Ev@Base 2.1.1
 _ZN14IrcMessageDataD2Ev@Base 2.1.1
 _ZN14IrcModeMessage11qt_metacallEN11QMetaObject4CallEiPPv@Base 2.1.1
 _ZN14IrcModeMessage11qt_metacastEPKc@Base 2.1.1
 _ZN14IrcModeMessage16staticMetaObjectE@Base 2.1.1
 _ZN14IrcModeMessageC1EP10IrcSession@Base 2.1.1
 _ZN14IrcModeMessageC2EP10IrcSession@Base 2.1.1
 _ZN14IrcModeMessageD0Ev@Base 2.1.1
 _ZN14IrcModeMessageD1Ev@Base 2.1.1
 _ZN14IrcModeMessageD2Ev@Base 2.1.1
 _ZN14IrcMotdMessage11qt_metacallEN11QMetaObject4CallEiPPv@Base 2.1.1
 _ZN14IrcMotdMessage11qt_metacastEPKc@Base 2.1.1
 _ZN14IrcMotdMessage16staticMetaObjectE@Base 2.1.1
 _ZN14IrcMotdMessageC1EP10IrcSession@Base 2.1.1
 _ZN14IrcMotdMessageC2EP10IrcSession@Base 2.1.1
 _ZN14IrcMotdMessageD0Ev@Base 2.1.1
 _ZN14IrcMotdMessageD1Ev@Base 2.1.1
 _ZN14IrcMotdMessageD2Ev@Base 2.1.1
 _ZN14IrcNickMessage11qt_metacallEN11QMetaObject4CallEiPPv@Base 2.1.1
 _ZN14IrcNickMessage11qt_metacastEPKc@Base 2.1.1
 _ZN14IrcNickMessage16staticMetaObjectE@Base 2.1.1
 _ZN14IrcNickMessageC1EP10IrcSession@Base 2.1.1
 _ZN14IrcNickMessageC2EP10IrcSession@Base 2.1.1
 _ZN14IrcNickMessageD0Ev@Base 2.1.1
 _ZN14IrcNickMessageD1Ev@Base 2.1.1
 _ZN14IrcNickMessageD2Ev@Base 2.1.1
 _ZN14IrcPartMessage11qt_metacallEN11QMetaObject4CallEiPPv@Base 2.1.1
 _ZN14IrcPartMessage11qt_metacastEPKc@Base 2.1.1
 _ZN14IrcPartMessage16staticMetaObjectE@Base 2.1.1
 _ZN14IrcPartMessageC1EP10IrcSession@Base 2.1.1
 _ZN14IrcPartMessageC2EP10IrcSession@Base 2.1.1
 _ZN14IrcPartMessageD0Ev@Base 2.1.1
 _ZN14IrcPartMessageD1Ev@Base 2.1.1
 _ZN14IrcPartMessageD2Ev@Base 2.1.1
 _ZN14IrcPingMessage11qt_metacallEN11QMetaObject4CallEiPPv@Base 2.1.1
 _ZN14IrcPingMessage11qt_metacastEPKc@Base 2.1.1
 _ZN14IrcPingMessage16staticMetaObjectE@Base 2.1.1
 _ZN14IrcPingMessageC1EP10IrcSession@Base 2.1.1
 _ZN14IrcPingMessageC2EP10IrcSession@Base 2.1.1
 _ZN14IrcPingMessageD0Ev@Base 2.1.1
 _ZN14IrcPingMessageD1Ev@Base 2.1.1
 _ZN14IrcPingMessageD2Ev@Base 2.1.1
 _ZN14IrcPongMessage11qt_metacallEN11QMetaObject4CallEiPPv@Base 2.1.1
 _ZN14IrcPongMessage11qt_metacastEPKc@Base 2.1.1
 _ZN14IrcPongMessage16staticMetaObjectE@Base 2.1.1
 _ZN14IrcPongMessageC1EP10IrcSession@Base 2.1.1
 _ZN14IrcPongMessageC2EP10IrcSession@Base 2.1.1
 _ZN14IrcPongMessageD0Ev@Base 2.1.1
 _ZN14IrcPongMessageD1Ev@Base 2.1.1
 _ZN14IrcPongMessageD2Ev@Base 2.1.1
 _ZN14IrcQuitMessage11qt_metacallEN11QMetaObject4CallEiPPv@Base 2.1.1
 _ZN14IrcQuitMessage11qt_metacastEPKc@Base 2.1.1
 _ZN14IrcQuitMessage16staticMetaObjectE@Base 2.1.1
 _ZN14IrcQuitMessageC1EP10IrcSession@Base 2.1.1
 _ZN14IrcQuitMessageC2EP10IrcSession@Base 2.1.1
 _ZN14IrcQuitMessageD0Ev@Base 2.1.1
 _ZN14IrcQuitMessageD1Ev@Base 2.1.1
 _ZN14IrcQuitMessageD2Ev@Base 2.1.1
 _ZN14IrcSessionInfoC1EPK10IrcSession@Base 2.1.1
 _ZN14IrcSessionInfoC1ERKS_@Base 2.1.1
 _ZN14IrcSessionInfoC2EPK10IrcSession@Base 2.1.1
 _ZN14IrcSessionInfoC2ERKS_@Base 2.1.1
 _ZN14IrcSessionInfoD1Ev@Base 2.1.1
 _ZN14IrcSessionInfoD2Ev@Base 2.1.1
 _ZN14IrcSessionInfoaSERKS_@Base 2.1.1
 _ZN14QScopedPointerI17IrcSessionPrivate21QScopedPointerDeleterIS0_EED1Ev@Base 2.1.1
 _ZN14QScopedPointerI17IrcSessionPrivate21QScopedPointerDeleterIS0_EED2Ev@Base 2.1.1
 _ZN14QScopedPointerI18IrcProtocolPrivate21QScopedPointerDeleterIS0_EED1Ev@Base 2.1.1
 _ZN14QScopedPointerI18IrcProtocolPrivate21QScopedPointerDeleterIS0_EED2Ev@Base 2.1.1
 _ZN15IrcErrorMessage11qt_metacallEN11QMetaObject4CallEiPPv@Base 2.1.1
 _ZN15IrcErrorMessage11qt_metacastEPKc@Base 2.1.1
 _ZN15IrcErrorMessage16staticMetaObjectE@Base 2.1.1
 _ZN15IrcErrorMessageC1EP10IrcSession@Base 2.1.1
 _ZN15IrcErrorMessageC2EP10IrcSession@Base 2.1.1
 _ZN15IrcErrorMessageD0Ev@Base 2.1.1
 _ZN15IrcErrorMessageD1Ev@Base 2.1.1
 _ZN15IrcErrorMessageD2Ev@Base 2.1.1
 _ZN15IrcNamesMessage11qt_metacallEN11QMetaObject4CallEiPPv@Base 2.1.1
 _ZN15IrcNamesMessage11qt_metacastEPKc@Base 2.1.1
 _ZN15IrcNamesMessage16staticMetaObjectE@Base 2.1.1
 _ZN15IrcNamesMessageC1EP10IrcSession@Base 2.1.1
 _ZN15IrcNamesMessageC2EP10IrcSession@Base 2.1.1
 _ZN15IrcNamesMessageD0Ev@Base 2.1.1
 _ZN15IrcNamesMessageD1Ev@Base 2.1.1
 _ZN15IrcNamesMessageD2Ev@Base 2.1.1
 _ZN15IrcTopicMessage11qt_metacallEN11QMetaObject4CallEiPPv@Base 2.1.1
 _ZN15IrcTopicMessage11qt_metacastEPKc@Base 2.1.1
 _ZN15IrcTopicMessage16staticMetaObjectE@Base 2.1.1
 _ZN15IrcTopicMessageC1EP10IrcSession@Base 2.1.1
 _ZN15IrcTopicMessageC2EP10IrcSession@Base 2.1.1
 _ZN15IrcTopicMessageD0Ev@Base 2.1.1
 _ZN15IrcTopicMessageD1Ev@Base 2.1.1
 _ZN15IrcTopicMessageD2Ev@Base 2.1.1
 _ZN16IrcInviteMessage11qt_metacallEN11QMetaObject4CallEiPPv@Base 2.1.1
 _ZN16IrcInviteMessage11qt_metacastEPKc@Base 2.1.1
 _ZN16IrcInviteMessage16staticMetaObjectE@Base 2.1.1
 _ZN16IrcInviteMessageC1EP10IrcSession@Base 2.1.1
 _ZN16IrcInviteMessageC2EP10IrcSession@Base 2.1.1
 _ZN16IrcInviteMessageD0Ev@Base 2.1.1
 _ZN16IrcInviteMessageD1Ev@Base 2.1.1
 _ZN16IrcInviteMessageD2Ev@Base 2.1.1
 _ZN16IrcMessageFilterC1Ev@Base 2.1.1
 _ZN16IrcMessageFilterC2Ev@Base 2.1.1
 _ZN16IrcMessageFilterD0Ev@Base 2.1.1
 _ZN16IrcMessageFilterD1Ev@Base 2.1.1
 _ZN16IrcMessageFilterD2Ev@Base 2.1.1
 _ZN16IrcNoticeMessage11qt_metacallEN11QMetaObject4CallEiPPv@Base 2.1.1
 _ZN16IrcNoticeMessage11qt_metacastEPKc@Base 2.1.1
 _ZN16IrcNoticeMessage16staticMetaObjectE@Base 2.1.1
 _ZN16IrcNoticeMessageC1EP10IrcSession@Base 2.1.1
 _ZN16IrcNoticeMessageC2EP10IrcSession@Base 2.1.1
 _ZN16IrcNoticeMessageD0Ev@Base 2.1.1
 _ZN16IrcNoticeMessageD1Ev@Base 2.1.1
 _ZN16IrcNoticeMessageD2Ev@Base 2.1.1
 _ZN16IrcSenderPrivate4initEv@Base 2.1.1
 _ZN17IrcCommandPrivate13createCommandEN10IrcCommand4TypeERK11QStringList@Base 2.1.1
 _ZN17IrcMessageBuilder11qt_metacallEN11QMetaObject4CallEiPPv@Base 2.1.1
 _ZN17IrcMessageBuilder11qt_metacastEPKc@Base 2.1.1
 _ZN17IrcMessageBuilder14processMessageEP17IrcNumericMessage@Base 2.1.1
 _ZN17IrcMessageBuilder15messageReceivedEP10IrcMessage@Base 2.1.1
 _ZN17IrcMessageBuilder16staticMetaObjectE@Base 2.1.1
 _ZN17IrcMessageBuilderC1EP10IrcSession@Base 2.1.1
 _ZN17IrcMessageBuilderC2EP10IrcSession@Base 2.1.1
 _ZN17IrcMessageBuilderD0Ev@Base 2.1.1
 _ZN17IrcMessageBuilderD1Ev@Base 2.1.1
 _ZN17IrcMessageBuilderD2Ev@Base 2.1.1
 _ZN17IrcMessageDecoder10initializeEv@Base 2.1.1
 _ZN17IrcMessageDecoder11setEncodingERK10QByteArray@Base 2.1.1
 _ZN17IrcMessageDecoder12uninitializeEv@Base 2.1.1
 _ZN17IrcMessageDecoderC1Ev@Base 2.1.1
 _ZN17IrcMessageDecoderC2Ev@Base 2.1.1
 _ZN17IrcMessageDecoderD1Ev@Base 2.1.1
 _ZN17IrcMessageDecoderD2Ev@Base 2.1.1
 _ZN17IrcMessagePrivate10invalidateEv@Base 2.1.1
 _ZN17IrcMessagePrivate10setCommandERK7QString@Base 2.1.1
 _ZN17IrcMessagePrivate6decodeERK10QByteArrayS2_@Base 2.1.1
 _ZN17IrcMessagePrivate9setParamsERK11QStringList@Base 2.1.1
 _ZN17IrcMessagePrivate9setSenderERK9IrcSender@Base 2.1.1
 _ZN17IrcMessagePrivateC1Ev@Base 2.1.1
 _ZN17IrcMessagePrivateC2Ev@Base 2.1.1
 _ZN17IrcNumericMessage11qt_metacallEN11QMetaObject4CallEiPPv@Base 2.1.1
 _ZN17IrcNumericMessage11qt_metacastEPKc@Base 2.1.1
 _ZN17IrcNumericMessage16staticMetaObjectE@Base 2.1.1
 _ZN17IrcNumericMessageC1EP10IrcSession@Base 2.1.1
 _ZN17IrcNumericMessageC2EP10IrcSession@Base 2.1.1
 _ZN17IrcNumericMessageD0Ev@Base 2.1.1
 _ZN17IrcNumericMessageD1Ev@Base 2.1.1
 _ZN17IrcNumericMessageD2Ev@Base 2.1.1
 _ZN17IrcPrivateMessage11qt_metacallEN11QMetaObject4CallEiPPv@Base 2.1.1
 _ZN17IrcPrivateMessage11qt_metacastEPKc@Base 2.1.1
 _ZN17IrcPrivateMessage16staticMetaObjectE@Base 2.1.1
 _ZN17IrcPrivateMessageC1EP10IrcSession@Base 2.1.1
 _ZN17IrcPrivateMessageC2EP10IrcSession@Base 2.1.1
 _ZN17IrcPrivateMessageD0Ev@Base 2.1.1
 _ZN17IrcPrivateMessageD1Ev@Base 2.1.1
 _ZN17IrcPrivateMessageD2Ev@Base 2.1.1
 _ZN17IrcSessionPrivate10_irc_errorEN15QAbstractSocket11SocketErrorE@Base 2.1.1
 _ZN17IrcSessionPrivate10_irc_stateEN15QAbstractSocket11SocketStateE@Base 2.1.1
 _ZN17IrcSessionPrivate12setConnectedEb@Base 2.1.1
 _ZN17IrcSessionPrivate13_irc_readDataEv@Base 2.1.1
 _ZN17IrcSessionPrivate14_irc_connectedEv@Base 2.1.1
 _ZN17IrcSessionPrivate14receiveMessageEP10IrcMessage@Base 2.1.1
 _ZN17IrcSessionPrivate17_irc_disconnectedEv@Base 2.1.1
 _ZN17IrcSessionPrivate7setNickERK7QString@Base 2.1.1
 _ZN17IrcSessionPrivate9setActiveEb@Base 2.1.1
 _ZN17IrcSessionPrivateC1EP10IrcSession@Base 2.1.1
 _ZN17IrcSessionPrivateC2EP10IrcSession@Base 2.1.1
 _ZN17QForeachContainerI11QStringListED1Ev@Base 2.1.1
 _ZN17QForeachContainerI11QStringListED2Ev@Base 2.1.1
 _ZN18IrcLagTimerPrivate13messageFilterEP10IrcMessage@Base 2.1.1
 _ZN18IrcLagTimerPrivate14_irc_connectedEv@Base 2.1.1
 _ZN18IrcLagTimerPrivate15_irc_pingServerEv@Base 2.1.1
 _ZN18IrcLagTimerPrivate16processPongReplyEP14IrcPongMessage@Base 2.1.1
 _ZN18IrcLagTimerPrivate17_irc_disconnectedEv@Base 2.1.1
 _ZN18IrcLagTimerPrivate9updateLagEx@Base 2.1.1
 _ZN18IrcLagTimerPrivateC1EP10IrcSessionP11IrcLagTimer@Base 2.1.1
 _ZN18IrcLagTimerPrivateC2EP10IrcSessionP11IrcLagTimer@Base 2.1.1
 _ZN18IrcLagTimerPrivateD0Ev@Base 2.1.1
 _ZN18IrcLagTimerPrivateD1Ev@Base 2.1.1
 _ZN18IrcLagTimerPrivateD2Ev@Base 2.1.1
 _ZN18IrcProtocolPrivate11processLineERK10QByteArray@Base 2.1.1
 _ZN18IrcProtocolPrivate9readLinesERK10QByteArray@Base 2.1.1
 _ZN18IrcProtocolPrivateC1EP11IrcProtocol@Base 2.1.1
 _ZN18IrcProtocolPrivateC2EP11IrcProtocol@Base 2.1.1
 _ZN18QSharedDataPointerI16IrcSenderPrivateE13detach_helperEv@Base 2.1.1
 _ZN18QSharedDataPointerI16IrcSenderPrivateED1Ev@Base 2.1.1
 _ZN18QSharedDataPointerI16IrcSenderPrivateED2Ev@Base 2.1.1
 _ZN18QSharedDataPointerI17IrcPalettePrivateE13detach_helperEv@Base 2.1.1
 _ZN18QSharedDataPointerI20IrcTextFormatPrivateE13detach_helperEv@Base 2.1.1
 _ZN18QSharedDataPointerI20IrcTextFormatPrivateED1Ev@Base 2.1.1
 _ZN18QSharedDataPointerI20IrcTextFormatPrivateED2Ev@Base 2.1.1
 _ZN18QSharedDataPointerI21IrcSessionInfoPrivateE13detach_helperEv@Base 2.1.1
 _ZN20IrcCapabilityMessage11qt_metacallEN11QMetaObject4CallEiPPv@Base 2.1.1
 _ZN20IrcCapabilityMessage11qt_metacastEPKc@Base 2.1.1
 _ZN20IrcCapabilityMessage16staticMetaObjectE@Base 2.1.1
 _ZN20IrcCapabilityMessageC1EP10IrcSession@Base 2.1.1
 _ZN20IrcCapabilityMessageC2EP10IrcSession@Base 2.1.1
 _ZN20IrcCapabilityMessageD0Ev@Base 2.1.1
 _ZN20IrcCapabilityMessageD1Ev@Base 2.1.1
 _ZN20IrcCapabilityMessageD2Ev@Base 2.1.1
 _ZN21IrcSessionInfoPrivateD1Ev@Base 2.1.1
 _ZN21IrcSessionInfoPrivateD2Ev@Base 2.1.1
 _ZN3Irc11qt_metacallEN11QMetaObject4CallEiPPv@Base 2.1.1
 _ZN3Irc11qt_metacastEPKc@Base 2.1.1
 _ZN3Irc16staticMetaObjectE@Base 2.1.1
 _ZN3Irc7versionEv@Base 2.1.1
 _ZN3Irc8toStringEi@Base 2.1.1
 _ZN3IrcD0Ev@Base 2.1.1
 _ZN3IrcD1Ev@Base 2.1.1
 _ZN3IrcD2Ev@Base 2.1.1
 _ZN4QSetI10QByteArrayED1Ev@Base 2.1.1
 _ZN4QSetI10QByteArrayED2Ev@Base 2.1.1
 _ZN4QSetI7QStringED1Ev@Base 2.1.1
 _ZN4QSetI7QStringED2Ev@Base 2.1.1
 _ZN5QHashI10QByteArray15QHashDummyValueE11deleteNode2EPN9QHashData4NodeE@Base 2.1.1
 _ZN5QHashI10QByteArray15QHashDummyValueE13detach_helperEv@Base 2.1.1
 _ZN5QHashI10QByteArray15QHashDummyValueE13duplicateNodeEPN9QHashData4NodeEPv@Base 2.1.1
 _ZN5QHashI7QString15QHashDummyValueE11deleteNode2EPN9QHashData4NodeE@Base 2.1.1
 _ZN5QHashI7QString15QHashDummyValueE13detach_helperEv@Base 2.1.1
 _ZN5QHashI7QString15QHashDummyValueE13duplicateNodeEPN9QHashData4NodeEPv@Base 2.1.1
 _ZN5QHashI7QString15QHashDummyValueE6removeERKS0_@Base 2.1.1
 _ZN5QHashI7QStringPK11QMetaObjectE11deleteNode2EPN9QHashData4NodeE@Base 2.1.1
 _ZN5QHashI7QStringPK11QMetaObjectE13duplicateNodeEPN9QHashData4NodeEPv@Base 2.1.1
 _ZN5QHashI7QStringPK11QMetaObjectED1Ev@Base 2.1.1
 _ZN5QHashI7QStringPK11QMetaObjectED2Ev@Base 2.1.1
 _ZN5QHashI7QStringS0_E11deleteNode2EPN9QHashData4NodeE@Base 2.1.1
 _ZN5QHashI7QStringS0_E13detach_helperEv@Base 2.1.1
 _ZN5QHashI7QStringS0_E13duplicateNodeEPN9QHashData4NodeEPv@Base 2.1.1
 _ZN5QHashI7QStringS0_E4takeERKS0_@Base 2.1.1
 _ZN5QHashI7QStringS0_ED1Ev@Base 2.1.1
 _ZN5QHashI7QStringS0_ED2Ev@Base 2.1.1
 _ZN5QHashIj7QStringE11deleteNode2EPN9QHashData4NodeE@Base 2.1.1
 _ZN5QHashIj7QStringE13detach_helperEv@Base 2.1.1
 _ZN5QHashIj7QStringE13duplicateNodeEPN9QHashData4NodeEPv@Base 2.1.1
 _ZN5QHashIj7QStringED1Ev@Base 2.1.1
 _ZN5QHashIj7QStringED2Ev@Base 2.1.1
 _ZN5QListI10QByteArrayE13detach_helperEi@Base 2.1.1
 _ZN5QListI10QByteArrayE18detach_helper_growEii@Base 2.1.1
 _ZN5QListI10QByteArrayE6appendERKS0_@Base 2.1.1
 _ZN5QListI10QByteArrayED1Ev@Base 2.1.1
 _ZN5QListI10QByteArrayED2Ev@Base 2.1.1
 _ZN5QListI7QStringE13detach_helperEi@Base 2.1.1
 _ZN5QListI7QStringE13detach_helperEv@Base 2.1.1
 _ZN5QListI7QStringE18detach_helper_growEii@Base 2.1.1
 _ZN5QListI7QStringE6appendERKS0_@Base 2.1.1
 _ZN5QListI7QStringE7reserveEi@Base 2.1.1
 _ZN5QListI7QStringED1Ev@Base 2.1.1
 _ZN5QListI7QStringED2Ev@Base 2.1.1
 _ZN5QListI7QStringEpLERKS1_@Base 2.1.1
 _ZN5QListI8QPointerI10IrcSessionEE13detach_helperEi@Base 2.1.1
 _ZN5QListI8QPointerI10IrcSessionEE13detach_helperEv@Base 2.1.1
 _ZN5QListI8QPointerI10IrcSessionEE18detach_helper_growEii@Base 2.1.1
 _ZN5QListI8QPointerI10IrcSessionEE6appendERKS2_@Base 2.1.1
 _ZN5QListI8QPointerI10IrcSessionEE9removeAllERKS2_@Base 2.1.1
 _ZN5QListI8QPointerI10IrcSessionEED1Ev@Base 2.1.1
 _ZN5QListI8QPointerI10IrcSessionEED2Ev@Base 2.1.1
 _ZN5QListIP16IrcMessageFilterE18detach_helper_growEii@Base 2.1.1
 _ZN5QListIP16IrcMessageFilterE6appendERKS1_@Base 2.1.1
 _ZN5QListIP16IrcMessageFilterE9removeAllERKS1_@Base 2.1.1
 _ZN6QDebugD1Ev@Base 2.1.1
 _ZN6QDebugD2Ev@Base 2.1.1
 _ZN7QStringD1Ev@Base 2.1.1
 _ZN7QStringD2Ev@Base 2.1.1
 _ZN9IrcSender7setHostERK7QString@Base 2.1.1
 _ZN9IrcSender7setNameERK7QString@Base 2.1.1
 _ZN9IrcSender7setUserERK7QString@Base 2.1.1
 _ZN9IrcSender9setPrefixERK7QString@Base 2.1.1
 _ZN9IrcSenderC1ERK7QString@Base 2.1.1
 _ZN9IrcSenderC1ERKS_@Base 2.1.1
 _ZN9IrcSenderC1Ev@Base 2.1.1
 _ZN9IrcSenderC2ERK7QString@Base 2.1.1
 _ZN9IrcSenderC2ERKS_@Base 2.1.1
 _ZN9IrcSenderC2Ev@Base 2.1.1
 _ZN9IrcSenderD1Ev@Base 2.1.1
 _ZN9IrcSenderD2Ev@Base 2.1.1
 _ZN9IrcSenderaSERKS_@Base 2.1.1
 _ZNK10IrcCommand10metaObjectEv@Base 2.1.1
 _ZNK10IrcCommand10parametersEv@Base 2.1.1
 _ZNK10IrcCommand4typeEv@Base 2.1.1
 _ZNK10IrcCommand8encodingEv@Base 2.1.1
 _ZNK10IrcCommand8toStringEv@Base 2.1.1
 _ZNK10IrcMessage10metaObjectEv@Base 2.1.1
 _ZNK10IrcMessage10parametersEv@Base 2.1.1
 _ZNK10IrcMessage4typeEv@Base 2.1.1
 _ZNK10IrcMessage5flagsEv@Base 2.1.1
 _ZNK10IrcMessage6senderEv@Base 2.1.1
 _ZNK10IrcMessage6toDataEv@Base 2.1.1
 _ZNK10IrcMessage7commandEv@Base 2.1.1
 _ZNK10IrcMessage7isValidEv@Base 2.1.1
 _ZNK10IrcMessage7sessionEv@Base 2.1.1
 _ZNK10IrcMessage8encodingEv@Base 2.1.1
 _ZNK10IrcMessage9timeStampEv@Base 2.1.1
 _ZNK10IrcPalette9colorNameEjRK7QString@Base 2.1.1
 _ZNK10IrcPaletteeqERKS_@Base 2.1.1
 _ZNK10IrcPaletteneERKS_@Base 2.1.1
 _ZNK10IrcSession10metaObjectEv@Base 2.1.1
 _ZNK10IrcSession11isConnectedEv@Base 2.1.1
 _ZNK10IrcSession15createCtcpReplyEP17IrcPrivateMessage@Base 2.1.1
 _ZNK10IrcSession4hostEv@Base 2.1.1
 _ZNK10IrcSession4portEv@Base 2.1.1
 _ZNK10IrcSession6socketEv@Base 2.1.1
 _ZNK10IrcSession8encodingEv@Base 2.1.1
 _ZNK10IrcSession8isActiveEv@Base 2.1.1
 _ZNK10IrcSession8nickNameEv@Base 2.1.1
 _ZNK10IrcSession8protocolEv@Base 2.1.1
 _ZNK10IrcSession8realNameEv@Base 2.1.1
 _ZNK10IrcSession8userNameEv@Base 2.1.1
 _ZNK11IrcLagTimer10metaObjectEv@Base 2.1.1
 _ZNK11IrcLagTimer3lagEv@Base 2.1.1
 _ZNK11IrcLagTimer7sessionEv@Base 2.1.1
 _ZNK11IrcLagTimer8intervalEv@Base 2.1.1
 _ZNK11IrcProtocol10metaObjectEv@Base 2.1.1
 _ZNK11IrcProtocol6socketEv@Base 2.1.1
 _ZNK11IrcProtocol7sessionEv@Base 2.1.1
 _ZNK13IrcTextFormat10urlPatternEv@Base 2.1.1
 _ZNK13IrcTextFormat11toPlainTextERK7QString@Base 2.1.1
 _ZNK13IrcTextFormat6toHtmlERK7QString@Base 2.1.1
 _ZNK13IrcTextFormat7paletteEv@Base 2.1.1
 _ZNK13IrcTextFormateqERKS_@Base 2.1.1
 _ZNK13IrcTextFormatneERKS_@Base 2.1.1
 _ZNK14IrcJoinMessage10metaObjectEv@Base 2.1.1
 _ZNK14IrcJoinMessage7channelEv@Base 2.1.1
 _ZNK14IrcJoinMessage7isValidEv@Base 2.1.1
 _ZNK14IrcKickMessage10metaObjectEv@Base 2.1.1
 _ZNK14IrcKickMessage4userEv@Base 2.1.1
 _ZNK14IrcKickMessage6reasonEv@Base 2.1.1
 _ZNK14IrcKickMessage7channelEv@Base 2.1.1
 _ZNK14IrcKickMessage7isValidEv@Base 2.1.1
 _ZNK14IrcModeMessage10metaObjectEv@Base 2.1.1
 _ZNK14IrcModeMessage4modeEv@Base 2.1.1
 _ZNK14IrcModeMessage6targetEv@Base 2.1.1
 _ZNK14IrcModeMessage7isValidEv@Base 2.1.1
 _ZNK14IrcModeMessage8argumentEv@Base 2.1.1
 _ZNK14IrcMotdMessage10metaObjectEv@Base 2.1.1
 _ZNK14IrcMotdMessage5linesEv@Base 2.1.1
 _ZNK14IrcMotdMessage7isValidEv@Base 2.1.1
 _ZNK14IrcNickMessage10metaObjectEv@Base 2.1.1
 _ZNK14IrcNickMessage4nickEv@Base 2.1.1
 _ZNK14IrcNickMessage7isValidEv@Base 2.1.1
 _ZNK14IrcPartMessage10metaObjectEv@Base 2.1.1
 _ZNK14IrcPartMessage6reasonEv@Base 2.1.1
 _ZNK14IrcPartMessage7channelEv@Base 2.1.1
 _ZNK14IrcPartMessage7isValidEv@Base 2.1.1
 _ZNK14IrcPingMessage10metaObjectEv@Base 2.1.1
 _ZNK14IrcPingMessage7isValidEv@Base 2.1.1
 _ZNK14IrcPingMessage8argumentEv@Base 2.1.1
 _ZNK14IrcPongMessage10metaObjectEv@Base 2.1.1
 _ZNK14IrcPongMessage7isValidEv@Base 2.1.1
 _ZNK14IrcPongMessage8argumentEv@Base 2.1.1
 _ZNK14IrcQuitMessage10metaObjectEv@Base 2.1.1
 _ZNK14IrcQuitMessage6reasonEv@Base 2.1.1
 _ZNK14IrcQuitMessage7isValidEv@Base 2.1.1
 _ZNK14IrcSessionInfo11targetLimitERK7QString@Base 2.1.1
 _ZNK14IrcSessionInfo12channelLimitERK7QString@Base 2.1.1
 _ZNK14IrcSessionInfo12channelTypesEv@Base 2.1.1
 _ZNK14IrcSessionInfo12modeToPrefixERK7QString@Base 2.1.1
 _ZNK14IrcSessionInfo12numericLimitENS_5LimitE@Base 2.1.1
 _ZNK14IrcSessionInfo12prefixToModeERK7QString@Base 2.1.1
 _ZNK14IrcSessionInfo18activeCapabilitiesEv@Base 2.1.1
 _ZNK14IrcSessionInfo21availableCapabilitiesEv@Base 2.1.1
 _ZNK14IrcSessionInfo5modesEv@Base 2.1.1
 _ZNK14IrcSessionInfo7isValidEv@Base 2.1.1
 _ZNK14IrcSessionInfo7networkEv@Base 2.1.1
 _ZNK14IrcSessionInfo8prefixesEv@Base 2.1.1
 _ZNK14IrcSessionInfo9modeLimitERK7QString@Base 2.1.1
 _ZNK15IrcErrorMessage10metaObjectEv@Base 2.1.1
 _ZNK15IrcErrorMessage5errorEv@Base 2.1.1
 _ZNK15IrcErrorMessage7isValidEv@Base 2.1.1
 _ZNK15IrcNamesMessage10metaObjectEv@Base 2.1.1
 _ZNK15IrcNamesMessage5namesEv@Base 2.1.1
 _ZNK15IrcNamesMessage7channelEv@Base 2.1.1
 _ZNK15IrcNamesMessage7isValidEv@Base 2.1.1
 _ZNK15IrcTopicMessage10metaObjectEv@Base 2.1.1
 _ZNK15IrcTopicMessage5topicEv@Base 2.1.1
 _ZNK15IrcTopicMessage7channelEv@Base 2.1.1
 _ZNK15IrcTopicMessage7isValidEv@Base 2.1.1
 _ZNK16IrcInviteMessage10metaObjectEv@Base 2.1.1
 _ZNK16IrcInviteMessage4userEv@Base 2.1.1
 _ZNK16IrcInviteMessage7channelEv@Base 2.1.1
 _ZNK16IrcInviteMessage7isValidEv@Base 2.1.1
 _ZNK16IrcNoticeMessage10metaObjectEv@Base 2.1.1
 _ZNK16IrcNoticeMessage6targetEv@Base 2.1.1
 _ZNK16IrcNoticeMessage7isReplyEv@Base 2.1.1
 _ZNK16IrcNoticeMessage7isValidEv@Base 2.1.1
 _ZNK16IrcNoticeMessage7messageEv@Base 2.1.1
 _ZNK17IrcMessageBuilder10metaObjectEv@Base 2.1.1
 _ZNK17IrcMessageDecoder12codecForDataERK10QByteArray@Base 2.1.1
 _ZNK17IrcMessageDecoder6decodeERK10QByteArray@Base 2.1.1
 _ZNK17IrcMessageDecoder8encodingEv@Base 2.1.1
 _ZNK17IrcMessagePrivate5paramEi@Base 2.1.1
 _ZNK17IrcMessagePrivate6paramsEv@Base 2.1.1
 _ZNK17IrcMessagePrivate6senderEv@Base 2.1.1
 _ZNK17IrcMessagePrivate7commandEv@Base 2.1.1
 _ZNK17IrcNumericMessage10metaObjectEv@Base 2.1.1
 _ZNK17IrcNumericMessage4codeEv@Base 2.1.1
 _ZNK17IrcNumericMessage7isValidEv@Base 2.1.1
 _ZNK17IrcPrivateMessage10metaObjectEv@Base 2.1.1
 _ZNK17IrcPrivateMessage6targetEv@Base 2.1.1
 _ZNK17IrcPrivateMessage7isValidEv@Base 2.1.1
 _ZNK17IrcPrivateMessage7messageEv@Base 2.1.1
 _ZNK17IrcPrivateMessage8isActionEv@Base 2.1.1
 _ZNK17IrcPrivateMessage9isRequestEv@Base 2.1.1
 _ZNK20IrcCapabilityMessage10metaObjectEv@Base 2.1.1
 _ZNK20IrcCapabilityMessage10subCommandEv@Base 2.1.1
 _ZNK20IrcCapabilityMessage12capabilitiesEv@Base 2.1.1
 _ZNK20IrcCapabilityMessage7isValidEv@Base 2.1.1
 _ZNK3Irc10metaObjectEv@Base 2.1.1
 _ZNK4QSetI7QStringE6toListEv@Base 2.1.1
 _ZNK5QHashI10QByteArray15QHashDummyValueE8findNodeERKS0_Pj@Base 2.1.1
 _ZNK5QHashI7QString15QHashDummyValueE8findNodeERKS0_Pj@Base 2.1.1
 _ZNK5QHashI7QStringPK11QMetaObjectE8findNodeERKS0_Pj@Base 2.1.1
 _ZNK5QHashI7QStringS0_E8findNodeERKS0_Pj@Base 2.1.1
 _ZNK5QHashIj7QStringEeqERKS1_@Base 2.1.1
 _ZNK5QListI10QByteArrayE5toSetEv@Base 2.1.1
 _ZNK5QListI7QStringE3midEii@Base 2.1.1
 _ZNK5QListI7QStringE5valueEi@Base 2.1.1
 _ZNK5QListI7QStringE7indexOfERKS0_i@Base 2.1.1
 _ZNK9IrcSender4hostEv@Base 2.1.1
 _ZNK9IrcSender4nameEv@Base 2.1.1
 _ZNK9IrcSender4userEv@Base 2.1.1
 _ZNK9IrcSender6prefixEv@Base 2.1.1
 _ZNK9IrcSender7isValidEv@Base 2.1.1
 _ZNK9IrcSendereqERKS_@Base 2.1.1
 _ZNK9IrcSenderneERKS_@Base 2.1.1
 _ZTI10IrcCommand@Base 2.1.1
 _ZTI10IrcMessage@Base 2.1.1
 _ZTI10IrcSession@Base 2.1.1
 _ZTI11IrcLagTimer@Base 2.1.1
 _ZTI11IrcProtocol@Base 2.1.1
 _ZTI14IrcJoinMessage@Base 2.1.1
 _ZTI14IrcKickMessage@Base 2.1.1
 _ZTI14IrcModeMessage@Base 2.1.1
 _ZTI14IrcMotdMessage@Base 2.1.1
 _ZTI14IrcNickMessage@Base 2.1.1
 _ZTI14IrcPartMessage@Base 2.1.1
 _ZTI14IrcPingMessage@Base 2.1.1
 _ZTI14IrcPongMessage@Base 2.1.1
 _ZTI14IrcQuitMessage@Base 2.1.1
 _ZTI15IrcErrorMessage@Base 2.1.1
 _ZTI15IrcNamesMessage@Base 2.1.1
 _ZTI15IrcTopicMessage@Base 2.1.1
 _ZTI16IrcInviteMessage@Base 2.1.1
 _ZTI16IrcMessageFilter@Base 2.1.1
 _ZTI16IrcNoticeMessage@Base 2.1.1
 _ZTI17IrcMessageBuilder@Base 2.1.1
 _ZTI17IrcNumericMessage@Base 2.1.1
 _ZTI17IrcPrivateMessage@Base 2.1.1
 _ZTI18IrcLagTimerPrivate@Base 2.1.1
 _ZTI20IrcCapabilityMessage@Base 2.1.1
 _ZTI3Irc@Base 2.1.1
 _ZTS10IrcCommand@Base 2.1.1
 _ZTS10IrcMessage@Base 2.1.1
 _ZTS10IrcSession@Base 2.1.1
 _ZTS11IrcLagTimer@Base 2.1.1
 _ZTS11IrcProtocol@Base 2.1.1
 _ZTS14IrcJoinMessage@Base 2.1.1
 _ZTS14IrcKickMessage@Base 2.1.1
 _ZTS14IrcModeMessage@Base 2.1.1
 _ZTS14IrcMotdMessage@Base 2.1.1
 _ZTS14IrcNickMessage@Base 2.1.1
 _ZTS14IrcPartMessage@Base 2.1.1
 _ZTS14IrcPingMessage@Base 2.1.1
 _ZTS14IrcPongMessage@Base 2.1.1
 _ZTS14IrcQuitMessage@Base 2.1.1
 _ZTS15IrcErrorMessage@Base 2.1.1
 _ZTS15IrcNamesMessage@Base 2.1.1
 _ZTS15IrcTopicMessage@Base 2.1.1
 _ZTS16IrcInviteMessage@Base 2.1.1
 _ZTS16IrcMessageFilter@Base 2.1.1
 _ZTS16IrcNoticeMessage@Base 2.1.1
 _ZTS17IrcMessageBuilder@Base 2.1.1
 _ZTS17IrcNumericMessage@Base 2.1.1
 _ZTS17IrcPrivateMessage@Base 2.1.1
 _ZTS18IrcLagTimerPrivate@Base 2.1.1
 _ZTS20IrcCapabilityMessage@Base 2.1.1
 _ZTS3Irc@Base 2.1.1
 _ZTV10IrcCommand@Base 2.1.1
 _ZTV10IrcMessage@Base 2.1.1
 _ZTV10IrcSession@Base 2.1.1
 _ZTV11IrcLagTimer@Base 2.1.1
 _ZTV11IrcProtocol@Base 2.1.1
 _ZTV14IrcJoinMessage@Base 2.1.1
 _ZTV14IrcKickMessage@Base 2.1.1
 _ZTV14IrcModeMessage@Base 2.1.1
 _ZTV14IrcMotdMessage@Base 2.1.1
 _ZTV14IrcNickMessage@Base 2.1.1
 _ZTV14IrcPartMessage@Base 2.1.1
 _ZTV14IrcPingMessage@Base 2.1.1
 _ZTV14IrcPongMessage@Base 2.1.1
 _ZTV14IrcQuitMessage@Base 2.1.1
 _ZTV15IrcErrorMessage@Base 2.1.1
 _ZTV15IrcNamesMessage@Base 2.1.1
 _ZTV15IrcTopicMessage@Base 2.1.1
 _ZTV16IrcInviteMessage@Base 2.1.1
 _ZTV16IrcMessageFilter@Base 2.1.1
 _ZTV16IrcNoticeMessage@Base 2.1.1
 _ZTV17IrcMessageBuilder@Base 2.1.1
 _ZTV17IrcNumericMessage@Base 2.1.1
 _ZTV17IrcPrivateMessage@Base 2.1.1
 _ZTV18IrcLagTimerPrivate@Base 2.1.1
 _ZTV20IrcCapabilityMessage@Base 2.1.1
 _ZTV3Irc@Base 2.1.1
 _ZZN11QMetaTypeIdI9IrcSenderE14qt_metatype_idEvE11metatype_id@Base 2.1.1
 _Zls6QDebugPK10IrcCommand@Base 2.1.1
 _Zls6QDebugPK10IrcMessage@Base 2.1.1
 _Zls6QDebugPK10IrcSession@Base 2.1.1
 _Zls6QDebugRK9IrcSender@Base 2.1.1
 _ZlsR11QDataStreamRK10IrcPalette@Base 2.1.1
 _ZlsR11QDataStreamRK13IrcTextFormat@Base 2.1.1
 _ZrsIj7QStringER11QDataStreamS2_R5QHashIT_T0_E@Base 2.1.1
 _ZrsR11QDataStreamR10IrcPalette@Base 2.1.1
 _ZrsR11QDataStreamR13IrcTextFormat@Base 2.1.1
